; Function Attrs: mustprogress nofree nounwind willreturn memory(write) uwtable
define internal fastcc noundef double @_ZN8QuantLib12_GLOBAL__N_11vEddddd(double noundef %p, double noundef %tt, double noundef %a, double noundef %b, double noundef %gm) unnamed_addr #21 {
entry:
  %sub = fsub double %a, %b
  %mul1 = fmul double %tt, %b
  %0 = tail call double @llvm.fmuladd.f64(double %p, double %sub, double %mul1)
  %fneg = fneg double %0
  %mul = fmul double %p, 2.000000e+00
  %mul2 = fmul double %mul, %tt
  %sub3 = fsub double %tt, %p
  %mul4 = fmul double %mul2, %sub3
  %call = tail call double @pow(double noundef %mul4, double noundef 5.000000e-01) #30, !tbaa !108
  %div = fdiv double %fneg, %call
  %1 = tail call double @llvm.fabs.f64(double %div)
  %cmp.i = fcmp ogt double %1, 3.700000e+01
  br i1 %cmp.i, label %_ZN8QuantLib12_GLOBAL__N_14PHIDEd.exit, label %if.else.i

if.else.i:                                        ; preds = %entry
  %fneg.i = fneg double %1
  %mul.i = fmul double %1, %fneg.i
  %div.i = fmul double %mul.i, 5.000000e-01
  %call.i = tail call double @exp(double noundef %div.i) #30, !tbaa !108
  %cmp1.i = fcmp olt double %1, 0x401C48C6001F0ABF
  br i1 %cmp1.i, label %if.then2.i, label %if.else18.i

if.then2.i:                                       ; preds = %if.else.i
  %2 = tail call double @llvm.fmuladd.f64(double %1, double 0x3FA20DED0B57FBDD, double 0x3FE66989BE8EA720)
  %3 = tail call double @llvm.fmuladd.f64(double %2, double %1, double 0x40197EEFF2A86F23)
  %4 = tail call double @llvm.fmuladd.f64(double %3, double %1, double 0x4040F4D8CBB02431)
  %5 = tail call double @llvm.fmuladd.f64(double %4, double %1, double 0x405C05131CA58D35)
  %6 = tail call double @llvm.fmuladd.f64(double %5, double %1, double 0x406BA6D5C7A28CF5)
  %7 = tail call double @llvm.fmuladd.f64(double %6, double %1, double 0x406B869EA974C7E9)
  %mul9.i = fmul double %7, %call.i
  %8 = tail call double @llvm.fmuladd.f64(double %1, double 0x3FB6A09E667F3BCD, double 0x3FFC173673887D1A)
  %9 = tail call double @llvm.fmuladd.f64(double %8, double %1, double 0x4030106DF11BD48F)
  %10 = tail call double @llvm.fmuladd.f64(double %9, double %1, double 0x4055B1F78433A599)
  %11 = tail call double @llvm.fmuladd.f64(double %10, double %1, double 0x4072890729BA781A)
  %12 = tail call double @llvm.fmuladd.f64(double %11, double %1, double 0x4083EAAB47FA1778)
  %13 = tail call double @llvm.fmuladd.f64(double %12, double %1, double 0x4088CE9CB298974E)
  %14 = tail call double @llvm.fmuladd.f64(double %13, double %1, double 0x407B869EA974C7E9)
  %div17.i = fdiv double %mul9.i, %14
  br label %_ZN8QuantLib12_GLOBAL__N_14PHIDEd.exit

if.else18.i:                                      ; preds = %if.else.i
  %add.i = fadd double %1, 6.500000e-01
  %div19.i = fdiv double 4.000000e+00, %add.i
  %add20.i = fadd double %1, %div19.i
  %div21.i = fdiv double 3.000000e+00, %add20.i
  %add22.i = fadd double %1, %div21.i
  %div23.i = fdiv double 2.000000e+00, %add22.i
  %add24.i = fadd double %1, %div23.i
  %div25.i = fdiv double 1.000000e+00, %add24.i
  %add26.i = fadd double %1, %div25.i
  %div27.i = fdiv double %call.i, %add26.i
  %div28.i = fdiv double %div27.i, 0x40040D931FF62707
  br label %_ZN8QuantLib12_GLOBAL__N_14PHIDEd.exit

_ZN8QuantLib12_GLOBAL__N_14PHIDEd.exit:           ; preds = %entry, %if.then2.i, %if.else18.i
  %P.0.i = phi double [ %div17.i, %if.then2.i ], [ %div28.i, %if.else18.i ], [ 0.000000e+00, %entry ]
  %cmp30.i = fcmp ogt double %div, 0.000000e+00
  %sub.i = fsub double 1.000000e+00, %P.0.i
  %P.1.i = select i1 %cmp30.i, double %sub.i, double %P.0.i
  %square = fmul double %sub, %sub
  %mul8 = fmul double %tt, 4.000000e+00
  %div9 = fdiv double %square, %mul8
  %call10 = tail call double @exp(double noundef %div9) #30, !tbaa !108
  %sub11 = fsub double 1.000000e+00, %gm
  %square14 = fmul double %sub11, %sub11
  %mul13 = fmul double %tt, %square14
  %div14 = fmul double %mul13, 2.500000e-01
  %call15 = tail call double @exp(double noundef %div14) #30, !tbaa !108
  %mul16 = fmul double %call10, %call15
  %call17 = tail call double @pow(double noundef %tt, double noundef 5.000000e-01) #30, !tbaa !108
  %mul18 = fmul double %mul16, %call17
  %div19 = fdiv double %P.1.i, %mul18
  ret double %div19
}